target datalayout = "e-m:e-p270:32:32-p271:32:32-p272:64:64-i64:64-i128:128-f80:128-n8:16:32:64-S128"
target triple = "x86_64-pc-linux-gnu"

%struct.__va_list_tag = type { i32, i32, ptr, ptr }

; Function Attrs: nounwind uwtable
define ptr @lv_text_set_text_vfmt(ptr noundef %0, ptr noundef %1) #0 {
  %3 = alloca ptr, align 8
  %4 = alloca ptr, align 8
  %5 = alloca ptr, align 8
  %6 = alloca [1 x %struct.__va_list_tag], align 16
  %7 = alloca i32, align 4
  %8 = alloca ptr, align 8
  %9 = alloca i32, align 4
  store ptr %0, ptr %4, align 8, !tbaa !3
  store ptr %1, ptr %5, align 8, !tbaa !3
  call void @llvm.lifetime.start.p0(i64 24, ptr %6) #5
  %10 = getelementptr inbounds [1 x %struct.__va_list_tag], ptr %6, i64 0, i64 0
  %11 = load ptr, ptr %5, align 8, !tbaa !3
  call void @llvm.va_copy.p0(ptr %10, ptr %11)
  call void @llvm.lifetime.start.p0(i64 4, ptr %7) #5
  %12 = load ptr, ptr %4, align 8, !tbaa !3
  %13 = getelementptr inbounds [1 x %struct.__va_list_tag], ptr %6, i64 0, i64 0
  %14 = call i32 @lv_vsnprintf(ptr noundef null, i64 noundef 0, ptr noundef %12, ptr noundef %13)
  store i32 %14, ptr %7, align 4, !tbaa !8
  %15 = getelementptr inbounds [1 x %struct.__va_list_tag], ptr %6, i64 0, i64 0
  call void @llvm.va_end.p0(ptr %15)
  call void @llvm.lifetime.start.p0(i64 8, ptr %8) #5
  store ptr null, ptr %8, align 8, !tbaa !3
  %16 = load i32, ptr %7, align 4, !tbaa !8
  %17 = add i32 %16, 1
  %18 = zext i32 %17 to i64
  %19 = call ptr @lv_malloc(i64 noundef %18)
  store ptr %19, ptr %8, align 8, !tbaa !3
  br label %20

20:                                               ; preds = %2
  %21 = load ptr, ptr %8, align 8, !tbaa !3
  %22 = icmp ne ptr %21, null
  br i1 %22, label %29, label %23

23:                                               ; preds = %20
  br label %24

24:                                               ; preds = %23
  br label %25

25:                                               ; preds = %24
  br label %26

26:                                               ; preds = %25
  br label %27

27:                                               ; preds = %28, %26
  br label %28

28:                                               ; preds = %27
  br label %27

29:                                               ; preds = %20
  br label %30

30:                                               ; preds = %29
  br label %31

31:                                               ; preds = %30
  %32 = load ptr, ptr %8, align 8, !tbaa !3
  %33 = icmp eq ptr %32, null
  br i1 %33, label %34, label %35

34:                                               ; preds = %31
  store ptr null, ptr %3, align 8
  store i32 1, ptr %9, align 4
  br label %44

35:                                               ; preds = %31
  %36 = load ptr, ptr %8, align 8, !tbaa !3
  %37 = load i32, ptr %7, align 4, !tbaa !8
  %38 = add i32 %37, 1
  %39 = zext i32 %38 to i64
  %40 = load ptr, ptr %4, align 8, !tbaa !3
  %41 = load ptr, ptr %5, align 8, !tbaa !3
  %42 = call i32 @lv_vsnprintf(ptr noundef %36, i64 noundef %39, ptr noundef %40, ptr noundef %41)
  %43 = load ptr, ptr %8, align 8, !tbaa !3
  store ptr %43, ptr %3, align 8
  store i32 1, ptr %9, align 4
  br label %44

44:                                               ; preds = %35, %34
  call void @llvm.lifetime.end.p0(i64 8, ptr %8) #5
  call void @llvm.lifetime.end.p0(i64 4, ptr %7) #5
  call void @llvm.lifetime.end.p0(i64 24, ptr %6) #5
  %45 = load ptr, ptr %3, align 8
  ret ptr %45
}