; Function Attrs: nounwind uwtable
define nonnull ptr @lv_text_set_text_vfmt(ptr noundef %0, ptr noundef %1) local_unnamed_addr #2 {
  %3 = alloca [1 x %struct.__va_list_tag], align 16
  call void @llvm.lifetime.start.p0(i64 24, ptr nonnull %3) #11
  call void @llvm.va_copy.p0(ptr nonnull %3, ptr %1)
  %4 = call i32 @lv_vsnprintf(ptr noundef null, i64 noundef 0, ptr noundef %0, ptr noundef nonnull %3) #11
  call void @llvm.va_end.p0(ptr nonnull %3)
  %5 = add i32 %4, 1
  %6 = zext i32 %5 to i64
  %7 = call ptr @lv_malloc(i64 noundef %6) #11
  %.not = icmp eq ptr %7, null
  br i1 %.not, label %.preheader, label %8

.preheader:                                       ; preds = %2, %.preheader
  br label %.preheader

8:                                                ; preds = %2
  %9 = call i32 @lv_vsnprintf(ptr noundef nonnull %7, i64 noundef %6, ptr noundef %0, ptr noundef %1) #11
  call void @llvm.lifetime.end.p0(i64 24, ptr nonnull %3) #11
  ret ptr %7
}